Certificate:
    Data:
        Version: 3 (0x2)
        Serial Number: 16 (0x10)
    Signature Algorithm: sha256WithRSAEncryption
        Issuer: C=GB, ST=Surrey, L=Purley, O=Alan Chandler, CN=Alan Chandler Certiciate Authority/emailAddress=alan@chandlerfamily.org.uk
        Validity
            Not Before: Sep 14 14:47:01 2017 GMT
            Not After : Sep 14 14:47:01 2018 GMT
        Subject: C=GB, ST=London, O=Chandler, CN=localhost
        Subject Public Key Info:
            Public Key Algorithm: rsaEncryption
                Public-Key: (2048 bit)
                Modulus:
                    00:cb:97:48:e3:41:c5:88:2f:7c:13:94:3f:ba:e5:
                    de:25:86:b3:10:ba:43:02:b4:d8:a9:c6:c9:a1:2c:
                    60:b9:1e:e4:96:fc:a2:18:96:4e:db:05:b0:a4:31:
                    1f:2e:39:c8:1b:17:bf:4d:ba:73:fe:9c:df:1b:ff:
                    2b:ac:33:69:22:a8:13:90:54:a2:74:2d:a2:ed:3b:
                    5b:e5:ab:ee:55:8a:c2:9e:c4:75:e3:39:51:72:78:
                    13:0a:33:db:8d:8f:7a:a1:61:35:17:62:d9:df:2b:
                    e2:b0:d3:ca:19:0a:2b:d7:27:02:7e:f0:5d:80:26:
                    12:52:4c:87:30:5e:fe:8c:c7:81:29:9d:9d:ba:ae:
                    d4:b3:3d:fe:a9:2a:d0:0a:f6:49:11:8a:9b:50:6f:
                    42:96:78:f5:62:ea:ac:96:01:9b:af:65:31:15:05:
                    c2:b3:52:ac:d9:e6:b0:b4:8d:ff:50:12:1f:e3:5b:
                    92:b8:10:ea:28:72:31:95:5f:a5:bd:a9:fb:ef:8a:
                    50:fd:5c:38:38:9f:88:34:f4:1c:81:78:f9:d7:18:
                    67:05:c0:dc:e1:59:97:ef:6f:7d:1b:ca:e9:e3:a2:
                    e5:ca:e3:8e:2f:d8:36:2a:89:2a:01:ac:09:10:b7:
                    1b:67:84:fe:41:4d:9d:c9:8d:b7:95:78:28:e4:e4:
                    56:97
                Exponent: 65537 (0x10001)
        X509v3 extensions:
            X509v3 Basic Constraints: 
                CA:FALSE
            X509v3 Subject Key Identifier: 
                15:6C:97:4D:42:54:E2:E0:B3:89:8D:61:FC:36:82:E5:E6:D3:04:5A
            X509v3 Authority Key Identifier: 
                keyid:0D:61:49:EA:AA:20:0C:F5:F2:F4:26:72:96:47:61:7B:F6:7C:A4:81

            Netscape CA Revocation Url: 
                https://www.chandlerfamily.org.uk/ca/akc-crl.pem
            X509v3 Key Usage: 
                Digital Signature, Non Repudiation, Key Encipherment
            X509v3 Subject Alternative Name: 
                DNS:localhost.local
    Signature Algorithm: sha256WithRSAEncryption
         ac:c8:eb:b9:4d:9d:d0:e2:f2:aa:50:b4:35:b2:d1:c9:a6:94:
         97:00:3b:69:97:a4:c4:9a:c0:df:cc:36:21:0c:33:98:31:78:
         61:1e:e1:9d:42:9b:73:32:40:8a:be:81:b7:6a:52:ca:d1:87:
         90:ae:22:9b:4b:26:2e:be:6f:6b:d8:9c:13:f7:4d:c1:21:bb:
         7f:50:38:75:b9:02:20:22:44:fc:e1:ae:63:28:06:d2:33:76:
         cb:42:84:82:20:d2:63:fd:e5:37:39:f2:d6:04:3a:27:7e:2b:
         f6:18:a1:62:c2:40:b1:46:98:3a:85:bc:87:98:43:b8:95:fe:
         12:02:45:18:7f:86:3f:53:65:02:be:63:34:f9:a9:46:bb:3a:
         30:31:1f:2e:55:e7:31:16:6e:4f:f5:86:d9:69:e9:61:d9:6d:
         07:49:52:b1:76:c5:1a:22:63:32:31:a9:89:47:c5:c6:cf:39:
         f7:e2:c6:e8:46:94:fb:83:19:0d:e3:3b:a3:2d:68:a7:86:58:
         b3:7c:96:bb:ae:a8:a5:7a:2f:a2:15:99:95:33:a0:1f:74:0a:
         a3:db:9e:14:61:ea:f7:5f:dc:7d:64:50:8f:13:13:a3:3f:a9:
         48:29:40:30:90:e3:c5:f5:b7:3e:14:7e:bb:7e:60:67:42:52:
         38:eb:ec:3a
-----BEGIN CERTIFICATE-----
MIIEGTCCAwGgAwIBAgIBEDANBgkqhkiG9w0BAQsFADCBnzELMAkGA1UEBhMCR0Ix
DzANBgNVBAgMBlN1cnJleTEPMA0GA1UEBwwGUHVybGV5MRYwFAYDVQQKDA1BbGFu
IENoYW5kbGVyMSswKQYDVQQDDCJBbGFuIENoYW5kbGVyIENlcnRpY2lhdGUgQXV0
aG9yaXR5MSkwJwYJKoZIhvcNAQkBFhphbGFuQGNoYW5kbGVyZmFtaWx5Lm9yZy51
azAeFw0xNzA5MTQxNDQ3MDFaFw0xODA5MTQxNDQ3MDFaMEUxCzAJBgNVBAYTAkdC
MQ8wDQYDVQQIEwZMb25kb24xETAPBgNVBAoTCENoYW5kbGVyMRIwEAYDVQQDEwls
b2NhbGhvc3QwggEiMA0GCSqGSIb3DQEBAQUAA4IBDwAwggEKAoIBAQDLl0jjQcWI
L3wTlD+65d4lhrMQukMCtNipxsmhLGC5HuSW/KIYlk7bBbCkMR8uOcgbF79NunP+
nN8b/yusM2kiqBOQVKJ0LaLtO1vlq+5VisKexHXjOVFyeBMKM9uNj3qhYTUXYtnf
K+Kw08oZCivXJwJ+8F2AJhJSTIcwXv6Mx4EpnZ26rtSzPf6pKtAK9kkRiptQb0KW
ePVi6qyWAZuvZTEVBcKzUqzZ5rC0jf9QEh/jW5K4EOoocjGVX6W9qfvvilD9XDg4
n4g09ByBePnXGGcFwNzhWZfvb30byunjouXK444v2DYqiSoBrAkQtxtnhP5BTZ3J
jbeVeCjk5FaXAgMBAAGjgbgwgbUwCQYDVR0TBAIwADAdBgNVHQ4EFgQUFWyXTUJU
4uCziY1h/DaC5ebTBFowHwYDVR0jBBgwFoAUDWFJ6qogDPXy9CZylkdhe/Z8pIEw
PwYJYIZIAYb4QgEEBDIWMGh0dHBzOi8vd3d3LmNoYW5kbGVyZmFtaWx5Lm9yZy51
ay9jYS9ha2MtY3JsLnBlbTALBgNVHQ8EBAMCBeAwGgYDVR0RBBMwEYIPbG9jYWxo
b3N0LmxvY2FsMA0GCSqGSIb3DQEBCwUAA4IBAQCsyOu5TZ3Q4vKqULQ1stHJppSX
ADtpl6TEmsDfzDYhDDOYMXhhHuGdQptzMkCKvoG3alLK0YeQriKbSyYuvm9r2JwT
903BIbt/UDh1uQIgIkT84a5jKAbSM3bLQoSCINJj/eU3OfLWBDonfiv2GKFiwkCx
Rpg6hbyHmEO4lf4SAkUYf4Y/U2UCvmM0+alGuzowMR8uVecxFm5P9YbZaelh2W0H
SVKxdsUaImMyMamJR8XGzzn34sboRpT7gxkN4zujLWinhlizfJa7rqilei+iFZmV
M6AfdAqj254UYer3X9x9ZFCPExOjP6lIKUAwkOPF9bc+FH67fmBnQlI46+w6
-----END CERTIFICATE-----
